Certificate:
    Data:
        Version: 3 (0x2)
        Serial Number:
            f7:47:fc:10:fa:d6:fa:81:82:c4:a8:dc:91:d0:c2:2c
        Signature Algorithm: ecdsa-with-SHA512
        Issuer: CN=server
        Validity
            Not Before: Dec  8 19:18:17 2022 GMT
            Not After : Nov 22 19:18:17 2025 GMT
        Subject: CN=server
        Subject Public Key Info:
            Public Key Algorithm: id-ecPublicKey
                Public-Key: (384 bit)
                pub:
                    04:28:e0:0c:8b:2e:cf:0c:cc:21:68:46:e0:de:e5:
                    63:be:ad:48:3e:76:92:5c:e1:59:62:ea:54:46:7e:
                    da:4d:6a:eb:34:7b:8c:be:33:7b:67:86:cd:c2:da:
                    0e:15:84:c6:67:91:80:9a:7c:77:dc:33:e8:3e:94:
                    99:77:7c:7c:fc:a4:ae:e4:cb:ce:c0:15:c6:fa:fe:
                    ba:c8:52:ad:90:4c:c6:39:ae:aa:9a:c1:4d:94:1d:
                    92:56:3c:d3:4c:1e:4f
                ASN1 OID: secp384r1
                NIST CURVE: P-384
        X509v3 extensions:
            X509v3 Basic Constraints:
                CA:FALSE
            X509v3 Subject Key Identifier:
                70:61:85:AC:D0:22:EA:42:89:99:0D:C5:86:5E:27:61:6F:A4:7E:1B
            X509v3 Authority Key Identifier:
                keyid:3D:84:07:12:19:C9:C1:45:FF:D4:D8:51:84:8D:0B:10:52:24:45:8E
                DirName:/CN=server
                serial:5F:23:A9:5C:7D:D8:38:65:66:25:1B:40:D7:55:F6:45:68:A8:C4:91

            X509v3 Extended Key Usage:
                TLS Web Server Authentication
            X509v3 Key Usage:
                Digital Signature, Key Encipherment
            X509v3 Subject Alternative Name:
                DNS:server
    Signature Algorithm: ecdsa-with-SHA512
         30:65:02:31:00:e8:05:45:bd:ce:8c:84:f5:6e:e0:f5:ef:b1:
         fe:ac:e8:02:08:79:73:fd:0e:03:1b:8e:07:e1:c5:64:d2:06:
         4a:63:27:0b:ae:41:66:ac:c4:a3:13:06:ca:02:77:32:ea:02:
         30:28:86:30:15:33:33:09:0a:b3:e7:ec:62:40:6e:b6:05:d5:
         35:8b:39:4d:e3:1d:50:e2:5b:c2:3e:7f:f6:db:03:56:e4:5a:
         60:99:37:66:2e:de:84:a0:05:0f:0e:e6:1a
-----BEGIN CERTIFICATE-----
MIICDzCCAZWgAwIBAgIRAPdH/BD61vqBgsSo3JHQwiwwCgYIKoZIzj0EAwQwETEP
MA0GA1UEAwwGc2VydmVyMB4XDTIyMTIwODE5MTgxN1oXDTI1MTEyMjE5MTgxN1ow
ETEPMA0GA1UEAwwGc2VydmVyMHYwEAYHKoZIzj0CAQYFK4EEACIDYgAEKOAMiy7P
DMwhaEbg3uVjvq1IPnaSXOFZYupURn7aTWrrNHuMvjN7Z4bNwtoOFYTGZ5GAmnx3
3DPoPpSZd3x8/KSu5MvOwBXG+v66yFKtkEzGOa6qmsFNlB2SVjzTTB5Po4GwMIGt
MAkGA1UdEwQCMAAwHQYDVR0OBBYEFHBhhazQIupCiZkNxYZeJ2FvpH4bMEwGA1Ud
IwRFMEOAFD2EBxIZycFF/9TYUYSNCxBSJEWOoRWkEzARMQ8wDQYDVQQDDAZzZXJ2
ZXKCFF8jqVx92DhlZiUbQNdV9kVoqMSRMBMGA1UdJQQMMAoGCCsGAQUFBwMBMAsG
A1UdDwQEAwIFoDARBgNVHREECjAIggZzZXJ2ZXIwCgYIKoZIzj0EAwQDaAAwZQIx
AOgFRb3OjIT1buD177H+rOgCCHlz/Q4DG44H4cVk0gZKYycLrkFmrMSjEwbKAncy
6gIwKIYwFTMzCQqz5+xiQG62BdU1izlN4x1Q4lvCPn/22wNW5FpgmTdmLt6EoAUP
DuYa
-----END CERTIFICATE-----
